
calculate_sum_O3.o:     file format elf64-x86-64


Disassembly of section .text:

0000000000000000 <calculate_sum>:
   0:	f3 0f 1e fa          	endbr64
   4:	89 f1                	mov    %esi,%ecx
   6:	89 d6                	mov    %edx,%esi
   8:	85 c9                	test   %ecx,%ecx
   a:	0f 84 b0 00 00 00    	je     c0 <calculate_sum+0xc0>
  10:	8d 41 ff             	lea    -0x1(%rcx),%eax
  13:	83 f8 02             	cmp    $0x2,%eax
  16:	0f 86 c5 00 00 00    	jbe    e1 <calculate_sum+0xe1>
  1c:	66 0f 6e fa          	movd   %edx,%xmm7
  20:	89 ca                	mov    %ecx,%edx
  22:	66 0f ef c9          	pxor   %xmm1,%xmm1
  26:	48 89 f8             	mov    %rdi,%rax
  29:	c1 ea 02             	shr    $0x2,%edx
  2c:	66 0f 70 ef 00       	pshufd $0x0,%xmm7,%xmm5
  31:	66 0f ef db          	pxor   %xmm3,%xmm3
  35:	48 c1 e2 04          	shl    $0x4,%rdx
  39:	48 01 fa             	add    %rdi,%rdx
  3c:	0f 1f 40 00          	nopl   0x0(%rax)
  40:	f3 0f 6f 30          	movdqu (%rax),%xmm6
  44:	66 0f 6f c5          	movdqa %xmm5,%xmm0
  48:	66 0f 6f d3          	movdqa %xmm3,%xmm2
  4c:	48 83 c0 10          	add    $0x10,%rax
  50:	66 0f 66 c6          	pcmpgtd %xmm6,%xmm0
  54:	66 0f 76 c3          	pcmpeqd %xmm3,%xmm0
  58:	66 0f 66 d0          	pcmpgtd %xmm0,%xmm2
  5c:	66 0f 6f e0          	movdqa %xmm0,%xmm4
  60:	66 0f 62 e2          	punpckldq %xmm2,%xmm4
  64:	66 0f 6a c2          	punpckhdq %xmm2,%xmm0
  68:	66 0f fb cc          	psubq  %xmm4,%xmm1
  6c:	66 0f fb c8          	psubq  %xmm0,%xmm1
  70:	48 39 d0             	cmp    %rdx,%rax
  73:	75 cb                	jne    40 <calculate_sum+0x40>
  75:	66 0f 6f c1          	movdqa %xmm1,%xmm0
  79:	89 ca                	mov    %ecx,%edx
  7b:	66 0f 73 d8 08       	psrldq $0x8,%xmm0
  80:	83 e2 fc             	and    $0xfffffffc,%edx
  83:	66 0f d4 c8          	paddq  %xmm0,%xmm1
  87:	66 48 0f 7e c8       	movq   %xmm1,%rax
  8c:	f6 c1 03             	test   $0x3,%cl
  8f:	74 4f                	je     e0 <calculate_sum+0xe0>
  91:	41 89 d0             	mov    %edx,%r8d
  94:	42 39 34 87          	cmp    %esi,(%rdi,%r8,4)
  98:	7d 2e                	jge    c8 <calculate_sum+0xc8>
  9a:	44 8d 42 01          	lea    0x1(%rdx),%r8d
  9e:	41 39 c8             	cmp    %ecx,%r8d
  a1:	73 1f                	jae    c2 <calculate_sum+0xc2>
  a3:	42 3b 34 87          	cmp    (%rdi,%r8,4),%esi
  a7:	7e 27                	jle    d0 <calculate_sum+0xd0>
  a9:	83 c2 02             	add    $0x2,%edx
  ac:	39 ca                	cmp    %ecx,%edx
  ae:	73 12                	jae    c2 <calculate_sum+0xc2>
  b0:	3b 34 97             	cmp    (%rdi,%rdx,4),%esi
  b3:	7f 0d                	jg     c2 <calculate_sum+0xc2>
  b5:	48 83 c0 01          	add    $0x1,%rax
  b9:	c3                   	ret
  ba:	66 0f 1f 44 00 00    	nopw   0x0(%rax,%rax,1)
  c0:	31 c0                	xor    %eax,%eax
  c2:	c3                   	ret
  c3:	0f 1f 44 00 00       	nopl   0x0(%rax,%rax,1)
  c8:	48 83 c0 01          	add    $0x1,%rax
  cc:	eb cc                	jmp    9a <calculate_sum+0x9a>
  ce:	66 90                	xchg   %ax,%ax
  d0:	48 83 c0 01          	add    $0x1,%rax
  d4:	eb d3                	jmp    a9 <calculate_sum+0xa9>
  d6:	66 2e 0f 1f 84 00 00 	cs nopw 0x0(%rax,%rax,1)
  dd:	00 00 00 
  e0:	c3                   	ret
  e1:	31 d2                	xor    %edx,%edx
  e3:	31 c0                	xor    %eax,%eax
  e5:	eb aa                	jmp    91 <calculate_sum+0x91>
